; Function Attrs: mustprogress uwtable
define internal void @_ZNK2cv4impl12_GLOBAL__N_120CvtColorLoop_InvokerINS_3hal12cpu_baseline12_GLOBAL__N_111RGB5x52GrayEEclERKNS_5RangeE(ptr nocapture noundef nonnull readonly align 8 dereferenceable(56) %0, ptr nocapture noundef nonnull readonly align 4 dereferenceable(8) %1) unnamed_addr #0 align 2 personality ptr @__gxx_personality_v0 {
  %3 = alloca %"class.cv::utils::trace::details::Region", align 8
  call void @_ZN2cv5utils5trace7details6RegionC1ERKNS3_21LocationStaticStorageE(ptr noundef nonnull align 8 dereferenceable(12) %3, ptr noundef nonnull align 8 dereferenceable(32) @_ZZNK2cv4impl12_GLOBAL__N_120CvtColorLoop_InvokerINS_3hal12cpu_baseline12_GLOBAL__N_111RGB5x52GrayEEclERKNS_5RangeEE25__cv_trace_location_fn146)
  %4 = load i32, ptr %1, align 4
  %5 = getelementptr inbounds i8, ptr %0, i64 16
  %6 = getelementptr inbounds i8, ptr %0, i64 32
  %7 = getelementptr inbounds i8, ptr %1, i64 4
  %8 = load i32, ptr %7, align 4
  %9 = icmp slt i32 %4, %8
  br i1 %9, label %.lr.ph, label %._crit_edge

.lr.ph:                                           ; preds = %2
  %10 = getelementptr inbounds i8, ptr %0, i64 40
  %11 = getelementptr inbounds i8, ptr %0, i64 48
  %12 = load i32, ptr %10, align 8
  %13 = icmp sgt i32 %12, 0
  br i1 %13, label %.lr.ph.split.preheader, label %._crit_edge

.lr.ph.split.preheader:                           ; preds = %.lr.ph
  %14 = getelementptr inbounds i8, ptr %0, i64 24
  %15 = load ptr, ptr %14, align 8
  %16 = load i64, ptr %6, align 8
  %17 = sext i32 %4 to i64
  %18 = mul i64 %16, %17
  %19 = getelementptr inbounds i8, ptr %15, i64 %18
  %20 = getelementptr inbounds i8, ptr %0, i64 8
  %21 = load ptr, ptr %20, align 8
  %22 = load i64, ptr %5, align 8
  %23 = mul i64 %22, %17
  %24 = getelementptr inbounds i8, ptr %21, i64 %23
  br label %.lr.ph.split

.lr.ph.split:                                     ; preds = %.lr.ph.split.preheader, %_ZNK2cv3hal12cpu_baseline12_GLOBAL__N_111RGB5x52GrayclEPKhPhi.exit
  %.015 = phi i32 [ %65, %_ZNK2cv3hal12cpu_baseline12_GLOBAL__N_111RGB5x52GrayclEPKhPhi.exit ], [ %4, %.lr.ph.split.preheader ]
  %.01014 = phi ptr [ %69, %_ZNK2cv3hal12cpu_baseline12_GLOBAL__N_111RGB5x52GrayclEPKhPhi.exit ], [ %19, %.lr.ph.split.preheader ]
  %.01113 = phi ptr [ %67, %_ZNK2cv3hal12cpu_baseline12_GLOBAL__N_111RGB5x52GrayclEPKhPhi.exit ], [ %24, %.lr.ph.split.preheader ]
  %25 = load i32, ptr %10, align 8
  %26 = icmp sgt i32 %25, 0
  br i1 %26, label %.lr.ph.i, label %_ZNK2cv3hal12cpu_baseline12_GLOBAL__N_111RGB5x52GrayclEPKhPhi.exit

.lr.ph.i:                                         ; preds = %.lr.ph.split
  %27 = load ptr, ptr %11, align 8
  %.val = load i32, ptr %27, align 4
  %28 = icmp eq i32 %.val, 6
  br i1 %28, label %.lr.ph.split.us.i, label %.lr.ph.split.i

.lr.ph.split.us.i:                                ; preds = %.lr.ph.i, %.lr.ph.split.us.i
  %.03.us.i = phi ptr [ %45, %.lr.ph.split.us.i ], [ %.01113, %.lr.ph.i ]
  %.0182.us.i = phi ptr [ %46, %.lr.ph.split.us.i ], [ %.01014, %.lr.ph.i ]
  %.0191.us.i = phi i32 [ %44, %.lr.ph.split.us.i ], [ 0, %.lr.ph.i ]
  %29 = load i16, ptr %.03.us.i, align 2
  %.tr.us.i = zext i16 %29 to i32
  %30 = shl nuw nsw i32 %.tr.us.i, 3
  %31 = lshr i16 %29, 3
  %32 = and i16 %31, 252
  %33 = lshr i16 %29, 8
  %.016.us.i = zext nneg i16 %32 to i32
  %34 = and i16 %33, 248
  %.017.us.i = zext nneg i16 %34 to i32
  %35 = and i32 %30, 248
  %36 = mul nuw nsw i32 %35, 3735
  %37 = mul nuw nsw i32 %.016.us.i, 19235
  %38 = mul nuw nsw i32 %.017.us.i, 9798
  %39 = add nuw nsw i32 %36, 16384
  %40 = add nuw nsw i32 %39, %37
  %41 = add nuw nsw i32 %40, %38
  %42 = lshr i32 %41, 15
  %43 = trunc nuw i32 %42 to i8
  store i8 %43, ptr %.0182.us.i, align 1
  %44 = add nuw nsw i32 %.0191.us.i, 1
  %45 = getelementptr inbounds i8, ptr %.03.us.i, i64 2
  %46 = getelementptr inbounds i8, ptr %.0182.us.i, i64 1
  %exitcond5.not.i = icmp eq i32 %44, %25
  br i1 %exitcond5.not.i, label %_ZNK2cv3hal12cpu_baseline12_GLOBAL__N_111RGB5x52GrayclEPKhPhi.exit, label %.lr.ph.split.us.i, !llvm.loop !78

.lr.ph.split.i:                                   ; preds = %.lr.ph.i, %.lr.ph.split.i
  %.03.i = phi ptr [ %63, %.lr.ph.split.i ], [ %.01113, %.lr.ph.i ]
  %.0182.i = phi ptr [ %64, %.lr.ph.split.i ], [ %.01014, %.lr.ph.i ]
  %.0191.i = phi i32 [ %62, %.lr.ph.split.i ], [ 0, %.lr.ph.i ]
  %47 = load i16, ptr %.03.i, align 2
  %.tr.i = zext i16 %47 to i32
  %48 = shl nuw nsw i32 %.tr.i, 3
  %49 = lshr i16 %47, 2
  %50 = and i16 %49, 248
  %51 = lshr i16 %47, 7
  %.016.i = zext nneg i16 %50 to i32
  %52 = and i16 %51, 248
  %.017.i = zext nneg i16 %52 to i32
  %53 = and i32 %48, 248
  %54 = mul nuw nsw i32 %53, 3735
  %55 = mul nuw nsw i32 %.016.i, 19235
  %56 = mul nuw nsw i32 %.017.i, 9798
  %57 = add nuw nsw i32 %54, 16384
  %58 = add nuw nsw i32 %57, %55
  %59 = add nuw nsw i32 %58, %56
  %60 = lshr i32 %59, 15
  %61 = trunc nuw i32 %60 to i8
  store i8 %61, ptr %.0182.i, align 1
  %62 = add nuw nsw i32 %.0191.i, 1
  %63 = getelementptr inbounds i8, ptr %.03.i, i64 2
  %64 = getelementptr inbounds i8, ptr %.0182.i, i64 1
  %exitcond.not.i = icmp eq i32 %62, %25
  br i1 %exitcond.not.i, label %_ZNK2cv3hal12cpu_baseline12_GLOBAL__N_111RGB5x52GrayclEPKhPhi.exit, label %.lr.ph.split.i, !llvm.loop !78

_ZNK2cv3hal12cpu_baseline12_GLOBAL__N_111RGB5x52GrayclEPKhPhi.exit: ; preds = %.lr.ph.split.i, %.lr.ph.split.us.i, %.lr.ph.split
  %65 = add nsw i32 %.015, 1
  %66 = load i64, ptr %5, align 8
  %67 = getelementptr inbounds i8, ptr %.01113, i64 %66
  %68 = load i64, ptr %6, align 8
  %69 = getelementptr inbounds i8, ptr %.01014, i64 %68
  %70 = load i32, ptr %7, align 4
  %71 = icmp slt i32 %65, %70
  br i1 %71, label %.lr.ph.split, label %._crit_edge, !llvm.loop !79

._crit_edge:                                      ; preds = %_ZNK2cv3hal12cpu_baseline12_GLOBAL__N_111RGB5x52GrayclEPKhPhi.exit, %.lr.ph, %2
  %72 = getelementptr inbounds i8, ptr %3, i64 8
  %73 = load i32, ptr %72, align 8
  %.not.i = icmp eq i32 %73, 0
  br i1 %.not.i, label %_ZN2cv5utils5trace7details6RegionD2Ev.exit, label %74

74:                                               ; preds = %._crit_edge
  invoke void @_ZN2cv5utils5trace7details6Region7destroyEv(ptr noundef nonnull align 8 dereferenceable(12) %3)
          to label %_ZN2cv5utils5trace7details6RegionD2Ev.exit unwind label %75

75:                                               ; preds = %74
  %76 = landingpad { ptr, i32 }
          catch ptr null
  %77 = extractvalue { ptr, i32 } %76, 0
  call void @__clang_call_terminate(ptr %77) #13
  unreachable

_ZN2cv5utils5trace7details6RegionD2Ev.exit:       ; preds = %._crit_edge, %74
  ret void
}